; Function Attrs: mustprogress nounwind uwtable
define dso_local void @_ZNK4node4quic7Session4qlogEv(ptr noalias nocapture writeonly sret(%"class.node::BaseObjectPtrImpl.61") align 8 %agg.result, ptr nocapture noundef nonnull readonly align 8 dereferenceable(2616) %this) local_unnamed_addr #5 align 2 {
entry:
  %qlog_stream_ = getelementptr inbounds i8, ptr %this, i64 2600
  %0 = load ptr, ptr %qlog_stream_, align 8
  store ptr null, ptr %agg.result, align 8
  %cmp.i.i = icmp eq ptr %0, null
  br i1 %cmp.i.i, label %_ZN4node17BaseObjectPtrImplINS_4quic9LogStreamELb0EEC2ERKS3_.exit, label %_ZNK4node17BaseObjectPtrImplINS_4quic9LogStreamELb0EE12pointer_dataEv.exit.i.i

_ZNK4node17BaseObjectPtrImplINS_4quic9LogStreamELb0EE12pointer_dataEv.exit.i.i: ; preds = %entry
  store ptr %0, ptr %agg.result, align 8
  %call3.i.i.i = tail call noundef ptr @_ZN4node10BaseObject12pointer_dataEv(ptr noundef nonnull align 8 dereferenceable(32) %0) #28
  %cmp2.not.i.i = icmp eq ptr %call3.i.i.i, null
  br i1 %cmp2.not.i.i, label %do.body6.i.i, label %do.end8.i.i

do.body6.i.i:                                     ; preds = %_ZNK4node17BaseObjectPtrImplINS_4quic9LogStreamELb0EE12pointer_dataEv.exit.i.i
  tail call void @_ZN4node6AssertERKNS_13AssertionInfoE(ptr noundef nonnull align 8 dereferenceable(24) @_ZZN4node17BaseObjectPtrImplINS_4quic9LogStreamELb0EEC1EPS2_E4args_0) #28
  tail call void @abort() #29
  unreachable

do.end8.i.i:                                      ; preds = %_ZNK4node17BaseObjectPtrImplINS_4quic9LogStreamELb0EE12pointer_dataEv.exit.i.i
  tail call void @_ZN4node10BaseObject17increase_refcountEv(ptr noundef nonnull align 8 dereferenceable(32) %0) #28
  br label %_ZN4node17BaseObjectPtrImplINS_4quic9LogStreamELb0EEC2ERKS3_.exit

_ZN4node17BaseObjectPtrImplINS_4quic9LogStreamELb0EEC2ERKS3_.exit: ; preds = %entry, %do.end8.i.i
  ret void
}